Certificate:
    Data:
        Version: 3 (0x2)
        Serial Number:
            13:15:cc:e4:e1:6e:87:20:a0:ba:09:0e:2f:4d:31:52
    Signature Algorithm: sha256WithRSAEncryption
        Issuer: CN=PisoVPN
        Validity
            Not Before: Aug 14 13:48:40 2019 GMT
            Not After : Feb 25 13:48:40 2040 GMT
        Subject: CN=pisovpn
        Subject Public Key Info:
            Public Key Algorithm: rsaEncryption
                Public-Key: (1024 bit)
                Modulus:
                    00:b0:31:f3:fc:18:c0:2b:de:c1:6c:0f:86:2a:39:
                    66:e7:4d:6b:2c:0a:42:07:b9:39:4f:94:a0:cf:2a:
                    8f:66:eb:4d:86:ed:ea:90:39:4c:f8:db:07:f0:0e:
                    b5:35:64:51:50:2d:a7:1a:23:4c:91:0c:f0:2c:ca:
                    b6:78:60:cd:86:96:84:95:bf:db:39:90:51:10:dc:
                    c0:75:33:04:07:b0:0b:8b:40:a9:a9:d9:48:29:8a:
                    7e:ae:16:c0:1c:6f:c1:00:91:5e:55:58:57:1c:ba:
                    2b:03:8c:d7:9c:5f:b9:35:6b:af:88:b9:62:44:5c:
                    06:73:b8:17:0b:e6:cb:98:6d
                Exponent: 65537 (0x10001)
        X509v3 extensions:
            X509v3 Basic Constraints: 
                CA:FALSE
            X509v3 Subject Key Identifier: 
                F4:52:B8:ED:0E:37:40:DE:3B:A4:E3:16:8D:13:C2:89:66:1D:04:2A
            X509v3 Authority Key Identifier: 
                keyid:F9:2A:0C:10:5F:6D:88:DE:39:74:D0:77:98:BD:77:46:10:B3:7F:5E
                DirName:/CN=PisoVPN
                serial:85:6F:21:AA:43:5E:93:96

            X509v3 Extended Key Usage: 
                TLS Web Server Authentication
            X509v3 Key Usage: 
                Digital Signature, Key Encipherment
            X509v3 Subject Alternative Name: 
                DNS:pisovpn
    Signature Algorithm: sha256WithRSAEncryption
         1c:cf:02:6c:a0:70:ef:ea:4a:fd:ba:9c:68:77:ec:be:5f:4b:
         d5:e6:ef:a8:18:da:e4:ba:e6:af:dd:61:14:25:16:c9:6e:97:
         23:60:79:d6:eb:f2:55:78:6b:c6:9f:38:28:ed:f4:96:37:07:
         eb:8c:47:61:0f:dc:d0:a4:bd:43:4b:85:23:be:a5:2e:40:e7:
         f4:14:88:af:f4:51:d0:8a:bb:a5:f2:55:cd:2d:4a:06:cb:1e:
         ef:c3:37:4f:ca:db:c9:6d:42:81:c4:d0:ad:9c:94:65:8e:86:
         ea:66:22:8c:5d:fe:2f:78:9f:44:8e:c1:0a:bc:c5:17:8a:19:
         13:8e
-----BEGIN CERTIFICATE-----
MIICUTCCAbqgAwIBAgIQExXM5OFuhyCgugkOL00xUjANBgkqhkiG9w0BAQsFADAS
MRAwDgYDVQQDEwdQaXNvVlBOMB4XDTE5MDgxNDEzNDg0MFoXDTQwMDIyNTEzNDg0
MFowEjEQMA4GA1UEAxMHcGlzb3ZwbjCBnzANBgkqhkiG9w0BAQEFAAOBjQAwgYkC
gYEAsDHz/BjAK97BbA+GKjlm501rLApCB7k5T5SgzyqPZutNhu3qkDlM+NsH8A61
NWRRUC2nGiNMkQzwLMq2eGDNhpaElb/bOZBRENzAdTMEB7ALi0CpqdlIKYp+rhbA
HG/BAJFeVVhXHLorA4zXnF+5NWuviLliRFwGc7gXC+bLmG0CAwEAAaOBpzCBpDAJ
BgNVHRMEAjAAMB0GA1UdDgQWBBT0UrjtDjdA3juk4xaNE8KJZh0EKjBCBgNVHSME
OzA5gBT5KgwQX22I3jl00HeYvXdGELN/XqEWpBQwEjEQMA4GA1UEAxMHUGlzb1ZQ
ToIJAIVvIapDXpOWMBMGA1UdJQQMMAoGCCsGAQUFBwMBMAsGA1UdDwQEAwIFoDAS
BgNVHREECzAJggdwaXNvdnBuMA0GCSqGSIb3DQEBCwUAA4GBABzPAmygcO/qSv26
nGh37L5fS9Xm76gY2uS65q/dYRQlFslulyNgedbr8lV4a8afOCjt9JY3B+uMR2EP
3NCkvUNLhSO+pS5A5/QUiK/0UdCKu6XyVc0tSgbLHu/DN0/K28ltQoHE0K2clGWO
hupmIoxd/i94n0SOwQq8xReKGROO
-----END CERTIFICATE-----
